(ikeras_frcnn.config
Config
p0
(dp1
S'use_vertical_flips'
p2
I01
sS'verbose'
p3
I01
sS'classifier_regr_std'
p4
(lp5
F8.0
aF8.0
aF4.0
aF4.0
asS'classifier_min_overlap'
p6
F0.1
sS'rot_90'
p7
I01
sS'num_epochs'
p8
I3000
sS'class_mapping'
p9
(dp10
S'Cyclist'
p11
I3
sS'bg'
p12
I9
sS'Van'
p13
I6
sS'Tram'
p14
I7
sS'Car'
p15
I2
sS'Misc'
p16
I5
sS'Pedestrian'
p17
I0
sS'Truck'
p18
I1
sS'Person_sitting'
p19
I8
sS'DontCare'
p20
I4
ssS'use_horizontal_flips'
p21
I01
sS'config_save_file'
p22
S'config.pickle'
p23
sS'rpn_max_overlap'
p24
F0.7
sS'network'
p25
S'resnet50'
p26
sS'img_channel_mean'
p27
(lp28
F103.939
aF116.779
aF123.68
asS'kitti_simple_label_file'
p29
S'kitti_simple_label.txt'
p30
sS'simple_label_file'
p31
S'kitti_simple_label.txt'
p32
sS'balanced_classes'
p33
I00
sS'anchor_box_ratios'
p34
(lp35
(lp36
I1
aI1
aa(lp37
I1
aI2
aa(lp38
I2
aI1
aasS'img_scaling_factor'
p39
F1.0
sS'data_dir'
p40
S'.data/'
p41
sS'rpn_stride'
p42
I16
sS'num_rois'
p43
I32
sS'base_net_weights'
p44
S'./model/resnet50_weights_tf_dim_ordering_tf_kernels.h5'
p45
sS'anchor_box_scales'
p46
(lp47
I128
aI256
aI512
asS'rpn_min_overlap'
p48
F0.3
sS'model_path'
p49
S'./model/kitti_frcnn_last.hdf5'
p50
sS'classifier_max_overlap'
p51
F0.5
sS'std_scaling'
p52
F4.0
sS'im_size'
p53
I600
sb.